; Function Attrs: nofree norecurse nosync nounwind memory(argmem: read) uwtable
define i32 @PMIx_Argv_count(ptr noundef readonly captures(address_is_null) %0) local_unnamed_addr #3 {
  %2 = icmp eq ptr %0, null
  br i1 %2, label %pmix_bfrops_base_tma_argv_count.exit, label %.preheader.i

.preheader.i:                                     ; preds = %1
  %3 = load ptr, ptr %0, align 8, !tbaa !12
  %.not1.i = icmp eq ptr %3, null
  br i1 %.not1.i, label %pmix_bfrops_base_tma_argv_count.exit, label %.lr.ph.i

.lr.ph.i:                                         ; preds = %.preheader.i, %.lr.ph.i
  %.03.i = phi i32 [ %4, %.lr.ph.i ], [ 0, %.preheader.i ]
  %.062.i = phi ptr [ %5, %.lr.ph.i ], [ %0, %.preheader.i ]
  %4 = add nuw nsw i32 %.03.i, 1
  %5 = getelementptr inbounds nuw i8, ptr %.062.i, i64 8
  %6 = load ptr, ptr %5, align 8, !tbaa !12
  %.not.i = icmp eq ptr %6, null
  br i1 %.not.i, label %pmix_bfrops_base_tma_argv_count.exit, label %.lr.ph.i, !llvm.loop !15

pmix_bfrops_base_tma_argv_count.exit:             ; preds = %.lr.ph.i, %1, %.preheader.i
  %.07.i = phi i32 [ 0, %1 ], [ 0, %.preheader.i ], [ %4, %.lr.ph.i ]
  ret i32 %.07.i
}